EXPORTS
	??0CSysTimer@@IAE@H@Z @ 1 NONAME ; CSysTimer::CSysTimer(int)
	??0CWaiter@@IAE@H@Z @ 2 NONAME ; CWaiter::CWaiter(int)
	??1CFolderScanner@@UAE@XZ @ 3 NONAME ; CFolderScanner::~CFolderScanner(void)
	??1CSysIni@@UAE@XZ @ 4 NONAME ; CSysIni::~CSysIni(void)
	??1CSysTimer@@UAE@XZ @ 5 NONAME ; CSysTimer::~CSysTimer(void)
	??1CWaiter@@UAE@XZ @ 6 NONAME ; CWaiter::~CWaiter(void)
	?Complete@CWaiter@@QAEXXZ @ 7 NONAME ; void CWaiter::Complete(void)
	?ConstructL@CSysTimer@@IAEXPAVCSysTimer_if@@H@Z @ 8 NONAME ; void CSysTimer::ConstructL(class CSysTimer_if *, int)
	?ConstructL@CWaiter@@IAEXPAVCWaiter_if@@H@Z @ 9 NONAME ; void CWaiter::ConstructL(class CWaiter_if *, int)
	?ContinueScan@CFolderScanner@@QAEXXZ @ 10 NONAME ; void CFolderScanner::ContinueScan(void)
	?DoCancel@CWaiter@@UAEXXZ @ 11 NONAME ; void CWaiter::DoCancel(void)
	?GetDataLength@CSysIni@@QAEHXZ @ 12 NONAME ; int CSysIni::GetDataLength(void)
	?MicroSeconds@CSysTimer@@QAEXH@Z @ 13 NONAME ; void CSysTimer::MicroSeconds(int)
	?MilliSeconds@CSysTimer@@QAEXH@Z @ 14 NONAME ; void CSysTimer::MilliSeconds(int)
	?NewL@CFolderScanner@@SAPAV1@PAVCFolderScanner_if@@ABVTDesC16@@1H@Z @ 15 NONAME ; class CFolderScanner * CFolderScanner::NewL(class CFolderScanner_if *, class TDesC16 const &, class TDesC16 const &, int)
	?NewL@CSysIni@@SAPAV1@ABVTDesC16@@@Z @ 16 NONAME ; class CSysIni * CSysIni::NewL(class TDesC16 const &)
	?NewL@CSysTimer@@SAPAV1@PAVCSysTimer_if@@HH@Z @ 17 NONAME ; class CSysTimer * CSysTimer::NewL(class CSysTimer_if *, int, int)
	?NewL@CWaiter@@SAPAV1@PAVCWaiter_if@@HH@Z @ 18 NONAME ; class CWaiter * CWaiter::NewL(class CWaiter_if *, int, int)
	?RunL@CSysTimer@@UAEXXZ @ 19 NONAME ; void CSysTimer::RunL(void)
	?RunL@CWaiter@@UAEXXZ @ 20 NONAME ; void CWaiter::RunL(void)
	?Seconds@CSysTimer@@QAEXH@Z @ 21 NONAME ; void CSysTimer::Seconds(int)
	?SeekBool@CSysIni@@QAE_NPBD@Z @ 22 NONAME ; bool CSysIni::SeekBool(char const *)
	?SeekInt@CSysIni@@QAE_NPBDAAH@Z @ 23 NONAME ; bool CSysIni::SeekInt(char const *, int &)
	?SeekIntList@CSysIni@@QAE_NPBDPAHHAAH@Z @ 24 NONAME ; bool CSysIni::SeekIntList(char const *, int *, int, int &)
	?SeekLine@CSysIni@@QAE_NPBDAAVTDes8@@@Z @ 25 NONAME ; bool CSysIni::SeekLine(char const *, class TDes8 &)
	?SeekStr@CSysIni@@QAE_NPBDAAVTDes8@@@Z @ 26 NONAME ; bool CSysIni::SeekStr(char const *, class TDes8 &)
	?Wait@CWaiter@@QAEXXZ @ 27 NONAME ; void CWaiter::Wait(void)
	sthread_create @ 28 NONAME
	sthread_destroy @ 29 NONAME

